target datalayout = "e-m:e-p270:32:32-p271:32:32-p272:64:64-i64:64-i128:128-f80:128-n8:16:32:64-S128"
target triple = "x86_64-pc-linux-gnu"

%struct.pdf_array = type { ptr, ptr }
%struct.pdf_array_node = type { ptr, i64, i32, ptr, ptr }

@.str.8 = private unnamed_addr constant [21 x i8] c"array[%lu][%lu]: %s\0A\00", align 1

; Function Attrs: nounwind uwtable
define void @pdf_print_array(ptr noundef %0, i64 noundef %1) #0 {
  %3 = alloca ptr, align 8
  %4 = alloca i64, align 8
  %5 = alloca ptr, align 8
  %6 = alloca i64, align 8
  store ptr %0, ptr %3, align 8
  store i64 %1, ptr %4, align 8
  store i64 0, ptr %6, align 8
  %7 = load ptr, ptr %3, align 8
  %8 = getelementptr inbounds %struct.pdf_array, ptr %7, i32 0, i32 0
  %9 = load ptr, ptr %8, align 8
  store ptr %9, ptr %5, align 8
  br label %10

10:                                               ; preds = %31, %2
  %11 = load ptr, ptr %5, align 8
  %12 = icmp ne ptr %11, null
  br i1 %12, label %13, label %37

13:                                               ; preds = %10
  %14 = load ptr, ptr %5, align 8
  %15 = getelementptr inbounds %struct.pdf_array_node, ptr %14, i32 0, i32 2
  %16 = load i32, ptr %15, align 8
  %17 = icmp eq i32 %16, 1
  br i1 %17, label %18, label %24

18:                                               ; preds = %13
  %19 = load i64, ptr %4, align 8
  %20 = load i64, ptr %6, align 8
  %21 = load ptr, ptr %5, align 8
  %22 = getelementptr inbounds %struct.pdf_array_node, ptr %21, i32 0, i32 0
  %23 = load ptr, ptr %22, align 8
  call void (ptr, ...) @cli_errmsg(ptr noundef @.str.8, i64 noundef %19, i64 noundef %20, ptr noundef %23)
  br label %30

24:                                               ; preds = %13
  %25 = load ptr, ptr %5, align 8
  %26 = getelementptr inbounds %struct.pdf_array_node, ptr %25, i32 0, i32 0
  %27 = load ptr, ptr %26, align 8
  %28 = load i64, ptr %4, align 8
  %29 = add i64 %28, 1
  call void @pdf_print_array(ptr noundef %27, i64 noundef %29)
  br label %30

30:                                               ; preds = %24, %18
  br label %31

31:                                               ; preds = %30
  %32 = load ptr, ptr %5, align 8
  %33 = getelementptr inbounds %struct.pdf_array_node, ptr %32, i32 0, i32 4
  %34 = load ptr, ptr %33, align 8
  store ptr %34, ptr %5, align 8
  %35 = load i64, ptr %6, align 8
  %36 = add i64 %35, 1
  store i64 %36, ptr %6, align 8
  br label %10

37:                                               ; preds = %10
  ret void
}