; Function Attrs: nounwind uwtable
define void @pdf_print_array(ptr nocapture noundef readonly %0, i64 noundef %1) local_unnamed_addr #0 {
  %.0910 = load ptr, ptr %0, align 8
  %.not11 = icmp eq ptr %.0910, null
  br i1 %.not11, label %._crit_edge, label %.lr.ph

.lr.ph:                                           ; preds = %2
  %3 = add i64 %1, 1
  br label %4

4:                                                ; preds = %.lr.ph, %11
  %.0913 = phi ptr [ %.0910, %.lr.ph ], [ %.09, %11 ]
  %.012 = phi i64 [ 0, %.lr.ph ], [ %13, %11 ]
  %5 = getelementptr inbounds i8, ptr %.0913, i64 16
  %6 = load i32, ptr %5, align 8
  %7 = icmp eq i32 %6, 1
  %8 = load ptr, ptr %.0913, align 8
  br i1 %7, label %9, label %10

9:                                                ; preds = %4
  tail call void (ptr, ...) @cli_errmsg(ptr noundef nonnull @.str.8, i64 noundef %1, i64 noundef %.012, ptr noundef %8) #14
  br label %11

10:                                               ; preds = %4
  tail call void @pdf_print_array(ptr noundef %8, i64 noundef %3)
  br label %11

11:                                               ; preds = %9, %10
  %12 = getelementptr inbounds i8, ptr %.0913, i64 32
  %13 = add i64 %.012, 1
  %.09 = load ptr, ptr %12, align 8
  %.not = icmp eq ptr %.09, null
  br i1 %.not, label %._crit_edge, label %4

._crit_edge:                                      ; preds = %11, %2
  ret void
}